target datalayout = "e-m:e-p270:32:32-p271:32:32-p272:64:64-i64:64-i128:128-f80:128-n8:16:32:64-S128"
target triple = "x86_64-pc-linux-gnu"

%struct.ossl_cmp_ctx_st = type { ptr, ptr, ptr, i32, ptr, ptr, ptr, ptr, ptr, i32, ptr, ptr, i32, i32, i32, i32, i64, ptr, ptr, i32, i32, ptr, ptr, ptr, ptr, ptr, i32, i32, i32, ptr, ptr, ptr, ptr, ptr, i64, ptr, i32, i32, ptr, ptr, ptr, ptr, ptr, ptr, ptr, ptr, i32, i32, ptr, ptr, i32, ptr, ptr, i32, ptr, ptr, i32, i32, ptr, ptr, i32, i32, ptr, ptr, i32, ptr, i32, ptr, i32, ptr, ptr, ptr, ptr, ptr, ptr }

@.str = private unnamed_addr constant [32 x i8] c"../openssl/crypto/cmp/cmp_vfy.c\00", align 1
@__func__.OSSL_CMP_validate_cert_path = private unnamed_addr constant [28 x i8] c"OSSL_CMP_validate_cert_path\00", align 1

; Function Attrs: inlinehint nounwind uwtable
define internal i32 @ERR_GET_REASON(i64 noundef %0) #3 {
  %2 = alloca i32, align 4
  %3 = alloca i64, align 8
  store i64 %0, ptr %3, align 8, !tbaa !35
  %4 = load i64, ptr %3, align 8, !tbaa !35
  %5 = and i64 %4, 2147483648
  %6 = icmp ne i64 %5, 0
  br i1 %6, label %7, label %11

7:                                                ; preds = %1
  %8 = load i64, ptr %3, align 8, !tbaa !35
  %9 = and i64 %8, 2147483647
  %10 = trunc i64 %9 to i32
  store i32 %10, ptr %2, align 4
  br label %15

11:                                               ; preds = %1
  %12 = load i64, ptr %3, align 8, !tbaa !35
  %13 = and i64 %12, 8388607
  %14 = trunc i64 %13 to i32
  store i32 %14, ptr %2, align 4
  br label %15

15:                                               ; preds = %11, %7
  %16 = load i32, ptr %2, align 4
  ret i32 %16
}

; Function Attrs: nounwind uwtable
define i32 @OSSL_CMP_validate_cert_path(ptr noundef %0, ptr noundef %1, ptr noundef %2) #0 {
  %4 = alloca i32, align 4
  %5 = alloca ptr, align 8
  %6 = alloca ptr, align 8
  %7 = alloca ptr, align 8
  %8 = alloca i32, align 4
  %9 = alloca ptr, align 8
  %10 = alloca i32, align 4
  %11 = alloca i32, align 4
  store ptr %0, ptr %5, align 8, !tbaa !3
  store ptr %1, ptr %6, align 8, !tbaa !8
  store ptr %2, ptr %7, align 8, !tbaa !10
  call void @llvm.lifetime.start.p0(i64 4, ptr %8) #5
  store i32 0, ptr %8, align 4, !tbaa !12
  call void @llvm.lifetime.start.p0(i64 8, ptr %9) #5
  store ptr null, ptr %9, align 8, !tbaa !14
  call void @llvm.lifetime.start.p0(i64 4, ptr %10) #5
  %12 = load ptr, ptr %5, align 8, !tbaa !3
  %13 = icmp eq ptr %12, null
  br i1 %13, label %17, label %14

14:                                               ; preds = %3
  %15 = load ptr, ptr %7, align 8, !tbaa !10
  %16 = icmp eq ptr %15, null
  br i1 %16, label %17, label %18

17:                                               ; preds = %14, %3
  call void @ERR_new()
  call void @ERR_set_debug(ptr noundef @.str, i32 noundef 114, ptr noundef @__func__.OSSL_CMP_validate_cert_path)
  call void (i32, i32, ptr, ...) @ERR_set_error(i32 noundef 58, i32 noundef 103, ptr noundef null)
  store i32 0, ptr %4, align 4
  store i32 1, ptr %11, align 4
  br label %61

18:                                               ; preds = %14
  %19 = load ptr, ptr %6, align 8, !tbaa !8
  %20 = icmp eq ptr %19, null
  br i1 %20, label %21, label %22

21:                                               ; preds = %18
  call void @ERR_new()
  call void @ERR_set_debug(ptr noundef @.str, i32 noundef 119, ptr noundef @__func__.OSSL_CMP_validate_cert_path)
  call void (i32, i32, ptr, ...) @ERR_set_error(i32 noundef 58, i32 noundef 144, ptr noundef null)
  store i32 0, ptr %4, align 4
  store i32 1, ptr %11, align 4
  br label %61

22:                                               ; preds = %18
  %23 = load ptr, ptr %5, align 8, !tbaa !3
  %24 = getelementptr inbounds nuw %struct.ossl_cmp_ctx_st, ptr %23, i32 0, i32 0
  %25 = load ptr, ptr %24, align 8, !tbaa !16
  %26 = load ptr, ptr %5, align 8, !tbaa !3
  %27 = getelementptr inbounds nuw %struct.ossl_cmp_ctx_st, ptr %26, i32 0, i32 1
  %28 = load ptr, ptr %27, align 8, !tbaa !33
  %29 = call ptr @X509_STORE_CTX_new_ex(ptr noundef %25, ptr noundef %28)
  store ptr %29, ptr %9, align 8, !tbaa !14
  %30 = icmp eq ptr %29, null
  br i1 %30, label %40, label %31

31:                                               ; preds = %22
  %32 = load ptr, ptr %9, align 8, !tbaa !14
  %33 = load ptr, ptr %6, align 8, !tbaa !8
  %34 = load ptr, ptr %7, align 8, !tbaa !10
  %35 = load ptr, ptr %5, align 8, !tbaa !3
  %36 = getelementptr inbounds nuw %struct.ossl_cmp_ctx_st, ptr %35, i32 0, i32 25
  %37 = load ptr, ptr %36, align 8, !tbaa !34
  %38 = call i32 @X509_STORE_CTX_init(ptr noundef %32, ptr noundef %33, ptr noundef %34, ptr noundef %37)
  %39 = icmp ne i32 %38, 0
  br i1 %39, label %41, label %40

40:                                               ; preds = %31, %22
  br label %57

41:                                               ; preds = %31
  %42 = load ptr, ptr %9, align 8, !tbaa !14
  %43 = call i32 @X509_verify_cert(ptr noundef %42)
  %44 = icmp sgt i32 %43, 0
  %45 = zext i1 %44 to i32
  store i32 %45, ptr %8, align 4, !tbaa !12
  %46 = call i64 @ERR_peek_last_error()
  %47 = trunc i64 %46 to i32
  store i32 %47, ptr %10, align 4, !tbaa !12
  %48 = load i32, ptr %8, align 4, !tbaa !12
  %49 = icmp ne i32 %48, 0
  br i1 %49, label %56, label %50

50:                                               ; preds = %41
  %51 = load i32, ptr %10, align 4, !tbaa !12
  %52 = sext i32 %51 to i64
  %53 = call i32 @ERR_GET_REASON(i64 noundef %52)
  %54 = icmp ne i32 %53, 147
  br i1 %54, label %55, label %56

55:                                               ; preds = %50
  call void @ERR_new()
  call void @ERR_set_debug(ptr noundef @.str, i32 noundef 133, ptr noundef @__func__.OSSL_CMP_validate_cert_path)
  call void (i32, i32, ptr, ...) @ERR_set_error(i32 noundef 58, i32 noundef 147, ptr noundef null)
  br label %56

56:                                               ; preds = %55, %50, %41
  br label %57

57:                                               ; preds = %56, %40
  %58 = load ptr, ptr %5, align 8, !tbaa !3
  call void @OSSL_CMP_CTX_print_errors(ptr noundef %58)
  %59 = load ptr, ptr %9, align 8, !tbaa !14
  call void @X509_STORE_CTX_free(ptr noundef %59)
  %60 = load i32, ptr %8, align 4, !tbaa !12
  store i32 %60, ptr %4, align 4
  store i32 1, ptr %11, align 4
  br label %61

61:                                               ; preds = %57, %21, %17
  call void @llvm.lifetime.end.p0(i64 4, ptr %10) #5
  call void @llvm.lifetime.end.p0(i64 8, ptr %9) #5
  call void @llvm.lifetime.end.p0(i64 4, ptr %8) #5
  %62 = load i32, ptr %4, align 4
  ret i32 %62
}