; Function Attrs: nounwind uwtable
define range(i32 0, 2) i32 @OSSL_CMP_validate_cert_path(ptr noundef %0, ptr noundef %1, ptr noundef %2) local_unnamed_addr #0 {
  %4 = icmp eq ptr %0, null
  %5 = icmp eq ptr %2, null
  %or.cond = or i1 %4, %5
  br i1 %or.cond, label %6, label %7

6:                                                ; preds = %3
  tail call void @ERR_new() #3
  tail call void @ERR_set_debug(ptr noundef nonnull @.str, i32 noundef 114, ptr noundef nonnull @__func__.OSSL_CMP_validate_cert_path) #3
  tail call void (i32, i32, ptr, ...) @ERR_set_error(i32 noundef 58, i32 noundef 103, ptr noundef null) #3
  br label %29

7:                                                ; preds = %3
  %8 = icmp eq ptr %1, null
  br i1 %8, label %9, label %10

9:                                                ; preds = %7
  tail call void @ERR_new() #3
  tail call void @ERR_set_debug(ptr noundef nonnull @.str, i32 noundef 119, ptr noundef nonnull @__func__.OSSL_CMP_validate_cert_path) #3
  tail call void (i32, i32, ptr, ...) @ERR_set_error(i32 noundef 58, i32 noundef 144, ptr noundef null) #3
  br label %29

10:                                               ; preds = %7
  %11 = load ptr, ptr %0, align 8, !tbaa !3
  %12 = getelementptr inbounds nuw i8, ptr %0, i64 8
  %13 = load ptr, ptr %12, align 8, !tbaa !26
  %14 = tail call ptr @X509_STORE_CTX_new_ex(ptr noundef %11, ptr noundef %13) #3
  %15 = icmp eq ptr %14, null
  br i1 %15, label %28, label %16

16:                                               ; preds = %10
  %17 = getelementptr inbounds nuw i8, ptr %0, i64 176
  %18 = load ptr, ptr %17, align 8, !tbaa !27
  %19 = tail call i32 @X509_STORE_CTX_init(ptr noundef nonnull %14, ptr noundef nonnull %1, ptr noundef nonnull %2, ptr noundef %18) #3
  %.not = icmp eq i32 %19, 0
  br i1 %.not, label %28, label %20

20:                                               ; preds = %16
  %21 = tail call i32 @X509_verify_cert(ptr noundef nonnull %14) #3
  %22 = icmp sgt i32 %21, 0
  %23 = tail call i64 @ERR_peek_last_error() #3
  br i1 %22, label %28, label %24

24:                                               ; preds = %20
  %25 = and i64 %23, 2147483648
  %.not.i = icmp eq i64 %25, 0
  %26 = trunc i64 %23 to i32
  %.0.v.i = select i1 %.not.i, i32 8388607, i32 2147483647
  %.0.i = and i32 %.0.v.i, %26
  %.not21 = icmp eq i32 %.0.i, 147
  br i1 %.not21, label %28, label %27

27:                                               ; preds = %24
  tail call void @ERR_new() #3
  tail call void @ERR_set_debug(ptr noundef nonnull @.str, i32 noundef 133, ptr noundef nonnull @__func__.OSSL_CMP_validate_cert_path) #3
  tail call void (i32, i32, ptr, ...) @ERR_set_error(i32 noundef 58, i32 noundef 147, ptr noundef null) #3
  br label %28

28:                                               ; preds = %20, %24, %27, %10, %16
  %.016.shrunk = phi i32 [ 0, %10 ], [ 1, %20 ], [ 0, %27 ], [ 0, %24 ], [ 0, %16 ]
  tail call void @OSSL_CMP_CTX_print_errors(ptr noundef nonnull %0) #3
  tail call void @X509_STORE_CTX_free(ptr noundef %14) #3
  br label %29

29:                                               ; preds = %28, %9, %6
  %.0 = phi i32 [ 0, %6 ], [ 0, %9 ], [ %.016.shrunk, %28 ]
  ret i32 %.0
}